target datalayout = "e-m:e-p270:32:32-p271:32:32-p272:64:64-i64:64-i128:128-f80:128-n8:16:32:64-S128"
target triple = "x86_64-pc-linux-gnu"

%"class.pxrInternal_v0_24__pxrReserved__::GfQuath" = type { %"class.pxrInternal_v0_24__pxrReserved__::GfVec3h", %"class.pxrInternal_v0_24__pxrReserved__::pxr_half::half" }
%"class.pxrInternal_v0_24__pxrReserved__::GfVec3h" = type { [3 x %"class.pxrInternal_v0_24__pxrReserved__::pxr_half::half"] }
%"class.pxrInternal_v0_24__pxrReserved__::pxr_half::half" = type { i16 }
%"class.pxrInternal_v0_24__pxrReserved__::GfVec4h" = type { [4 x %"class.pxrInternal_v0_24__pxrReserved__::pxr_half::half"] }

; Function Attrs: mustprogress nounwind uwtable
define linkonce_odr void @_ZN32pxrInternal_v0_24__pxrReserved__7GfVec4hC2ENS_8pxr_half4halfES2_S2_S2_(ptr noundef nonnull align 2 dereferenceable(8) %0, i16 %1, i16 %2, i16 %3, i16 %4) unnamed_addr #2 comdat align 2 {
  %6 = alloca %"class.pxrInternal_v0_24__pxrReserved__::pxr_half::half", align 2
  %7 = alloca %"class.pxrInternal_v0_24__pxrReserved__::pxr_half::half", align 2
  %8 = alloca %"class.pxrInternal_v0_24__pxrReserved__::pxr_half::half", align 2
  %9 = alloca %"class.pxrInternal_v0_24__pxrReserved__::pxr_half::half", align 2
  %10 = alloca ptr, align 8
  %11 = getelementptr inbounds nuw %"class.pxrInternal_v0_24__pxrReserved__::pxr_half::half", ptr %6, i32 0, i32 0
  store i16 %1, ptr %11, align 2
  %12 = getelementptr inbounds nuw %"class.pxrInternal_v0_24__pxrReserved__::pxr_half::half", ptr %7, i32 0, i32 0
  store i16 %2, ptr %12, align 2
  %13 = getelementptr inbounds nuw %"class.pxrInternal_v0_24__pxrReserved__::pxr_half::half", ptr %8, i32 0, i32 0
  store i16 %3, ptr %13, align 2
  %14 = getelementptr inbounds nuw %"class.pxrInternal_v0_24__pxrReserved__::pxr_half::half", ptr %9, i32 0, i32 0
  store i16 %4, ptr %14, align 2
  store ptr %0, ptr %10, align 8
  %15 = load ptr, ptr %10, align 8
  %16 = getelementptr inbounds nuw %"class.pxrInternal_v0_24__pxrReserved__::GfVec4h", ptr %15, i32 0, i32 0
  call void @llvm.memcpy.p0.p0.i64(ptr align 2 %16, ptr align 2 %6, i64 2, i1 false)
  %17 = getelementptr inbounds %"class.pxrInternal_v0_24__pxrReserved__::pxr_half::half", ptr %16, i64 1
  call void @llvm.memcpy.p0.p0.i64(ptr align 2 %17, ptr align 2 %7, i64 2, i1 false)
  %18 = getelementptr inbounds %"class.pxrInternal_v0_24__pxrReserved__::pxr_half::half", ptr %16, i64 2
  call void @llvm.memcpy.p0.p0.i64(ptr align 2 %18, ptr align 2 %8, i64 2, i1 false)
  %19 = getelementptr inbounds %"class.pxrInternal_v0_24__pxrReserved__::pxr_half::half", ptr %16, i64 3
  call void @llvm.memcpy.p0.p0.i64(ptr align 2 %19, ptr align 2 %9, i64 2, i1 false)
  ret void
}

; Function Attrs: mustprogress nounwind uwtable
define linkonce_odr noundef nonnull align 2 dereferenceable(2) ptr @_ZN32pxrInternal_v0_24__pxrReserved__7GfVec3hixEm(ptr noundef nonnull align 2 dereferenceable(6) %0, i64 noundef %1) #2 comdat align 2 {
  %3 = alloca ptr, align 8
  %4 = alloca i64, align 8
  store ptr %0, ptr %3, align 8
  store i64 %1, ptr %4, align 8
  %5 = load ptr, ptr %3, align 8
  %6 = getelementptr inbounds nuw %"class.pxrInternal_v0_24__pxrReserved__::GfVec3h", ptr %5, i32 0, i32 0
  %7 = load i64, ptr %4, align 8
  %8 = getelementptr inbounds [3 x %"class.pxrInternal_v0_24__pxrReserved__::pxr_half::half"], ptr %6, i64 0, i64 %7
  ret ptr %8
}

; Function Attrs: mustprogress nounwind uwtable
define linkonce_odr i16 @_ZNK32pxrInternal_v0_24__pxrReserved__7GfQuath7GetRealEv(ptr noundef nonnull align 2 dereferenceable(8) %0) #2 comdat align 2 {
  %2 = alloca %"class.pxrInternal_v0_24__pxrReserved__::pxr_half::half", align 2
  %3 = alloca ptr, align 8
  store ptr %0, ptr %3, align 8
  %4 = load ptr, ptr %3, align 8
  %5 = getelementptr inbounds nuw %"class.pxrInternal_v0_24__pxrReserved__::GfQuath", ptr %4, i32 0, i32 1
  call void @llvm.memcpy.p0.p0.i64(ptr align 2 %2, ptr align 2 %5, i64 2, i1 false)
  %6 = getelementptr inbounds nuw %"class.pxrInternal_v0_24__pxrReserved__::pxr_half::half", ptr %2, i32 0, i32 0
  %7 = load i16, ptr %6, align 2
  ret i16 %7
}

; Function Attrs: mustprogress nounwind uwtable
define linkonce_odr noundef nonnull align 2 dereferenceable(6) ptr @_ZNK32pxrInternal_v0_24__pxrReserved__7GfQuath12GetImaginaryEv(ptr noundef nonnull align 2 dereferenceable(8) %0) #2 comdat align 2 {
  %2 = alloca ptr, align 8
  store ptr %0, ptr %2, align 8
  %3 = load ptr, ptr %2, align 8
  %4 = getelementptr inbounds nuw %"class.pxrInternal_v0_24__pxrReserved__::GfQuath", ptr %3, i32 0, i32 0
  ret ptr %4
}

; Function Attrs: mustprogress uwtable
define noundef nonnull align 8 dereferenceable(8) ptr @_ZN32pxrInternal_v0_24__pxrReserved__lsERSoRKNS_7GfQuathE(ptr noundef nonnull align 8 dereferenceable(8) %0, ptr noundef nonnull align 2 dereferenceable(8) %1) #0 {
  %3 = alloca ptr, align 8
  %4 = alloca ptr, align 8
  %5 = alloca %"class.pxrInternal_v0_24__pxrReserved__::GfVec3h", align 2
  %6 = alloca %"class.pxrInternal_v0_24__pxrReserved__::pxr_half::half", align 2
  %7 = alloca %"class.pxrInternal_v0_24__pxrReserved__::GfVec4h", align 2
  %8 = alloca %"class.pxrInternal_v0_24__pxrReserved__::pxr_half::half", align 2
  %9 = alloca %"class.pxrInternal_v0_24__pxrReserved__::pxr_half::half", align 2
  %10 = alloca %"class.pxrInternal_v0_24__pxrReserved__::pxr_half::half", align 2
  %11 = alloca %"class.pxrInternal_v0_24__pxrReserved__::pxr_half::half", align 2
  store ptr %0, ptr %3, align 8
  store ptr %1, ptr %4, align 8
  %12 = load ptr, ptr %4, align 8
  %13 = call noundef nonnull align 2 dereferenceable(6) ptr @_ZNK32pxrInternal_v0_24__pxrReserved__7GfQuath12GetImaginaryEv(ptr noundef nonnull align 2 dereferenceable(8) %12)
  call void @llvm.memcpy.p0.p0.i64(ptr align 2 %5, ptr align 2 %13, i64 6, i1 false)
  %14 = load ptr, ptr %4, align 8
  %15 = call i16 @_ZNK32pxrInternal_v0_24__pxrReserved__7GfQuath7GetRealEv(ptr noundef nonnull align 2 dereferenceable(8) %14)
  %16 = getelementptr inbounds nuw %"class.pxrInternal_v0_24__pxrReserved__::pxr_half::half", ptr %6, i32 0, i32 0
  store i16 %15, ptr %16, align 2
  %17 = load ptr, ptr %3, align 8
  call void @llvm.memcpy.p0.p0.i64(ptr align 2 %8, ptr align 2 %6, i64 2, i1 false)
  %18 = call noundef nonnull align 2 dereferenceable(2) ptr @_ZN32pxrInternal_v0_24__pxrReserved__7GfVec3hixEm(ptr noundef nonnull align 2 dereferenceable(6) %5, i64 noundef 0)
  call void @llvm.memcpy.p0.p0.i64(ptr align 2 %9, ptr align 2 %18, i64 2, i1 false)
  %19 = call noundef nonnull align 2 dereferenceable(2) ptr @_ZN32pxrInternal_v0_24__pxrReserved__7GfVec3hixEm(ptr noundef nonnull align 2 dereferenceable(6) %5, i64 noundef 1)
  call void @llvm.memcpy.p0.p0.i64(ptr align 2 %10, ptr align 2 %19, i64 2, i1 false)
  %20 = call noundef nonnull align 2 dereferenceable(2) ptr @_ZN32pxrInternal_v0_24__pxrReserved__7GfVec3hixEm(ptr noundef nonnull align 2 dereferenceable(6) %5, i64 noundef 2)
  call void @llvm.memcpy.p0.p0.i64(ptr align 2 %11, ptr align 2 %20, i64 2, i1 false)
  %21 = getelementptr inbounds nuw %"class.pxrInternal_v0_24__pxrReserved__::pxr_half::half", ptr %8, i32 0, i32 0
  %22 = load i16, ptr %21, align 2
  %23 = getelementptr inbounds nuw %"class.pxrInternal_v0_24__pxrReserved__::pxr_half::half", ptr %9, i32 0, i32 0
  %24 = load i16, ptr %23, align 2
  %25 = getelementptr inbounds nuw %"class.pxrInternal_v0_24__pxrReserved__::pxr_half::half", ptr %10, i32 0, i32 0
  %26 = load i16, ptr %25, align 2
  %27 = getelementptr inbounds nuw %"class.pxrInternal_v0_24__pxrReserved__::pxr_half::half", ptr %11, i32 0, i32 0
  %28 = load i16, ptr %27, align 2
  call void @_ZN32pxrInternal_v0_24__pxrReserved__7GfVec4hC2ENS_8pxr_half4halfES2_S2_S2_(ptr noundef nonnull align 2 dereferenceable(8) %7, i16 %22, i16 %24, i16 %26, i16 %28)
  %29 = call noundef nonnull align 8 dereferenceable(8) ptr @_ZN32pxrInternal_v0_24__pxrReserved__lsERSoRKNS_7GfVec4hE(ptr noundef nonnull align 8 dereferenceable(8) %17, ptr noundef nonnull align 2 dereferenceable(8) %7)
  ret ptr %29
}