; Function Attrs: mustprogress uwtable
define noundef nonnull align 8 dereferenceable(8) ptr @_ZN32pxrInternal_v0_24__pxrReserved__lsERSoRKNS_7GfQuathE(ptr noundef nonnull align 8 dereferenceable(8) %0, ptr noundef nonnull readonly align 2 captures(none) dereferenceable(8) %1) local_unnamed_addr #0 {
  %3 = alloca %"class.pxrInternal_v0_24__pxrReserved__::GfVec4h", align 2
  %.sroa.0.0.copyload7 = load i16, ptr %1, align 2
  %.sroa.2.0..sroa_idx = getelementptr inbounds nuw i8, ptr %1, i64 2
  %.sroa.2.0.copyload = load i16, ptr %.sroa.2.0..sroa_idx, align 2
  %.sroa.3.0..sroa_idx = getelementptr inbounds nuw i8, ptr %1, i64 4
  %.sroa.3.0.copyload = load i16, ptr %.sroa.3.0..sroa_idx, align 2
  %4 = getelementptr inbounds nuw i8, ptr %1, i64 6
  %.sroa.0.0.copyload.i = load i16, ptr %4, align 2
  store i16 %.sroa.0.0.copyload.i, ptr %3, align 2
  %5 = getelementptr inbounds nuw i8, ptr %3, i64 2
  store i16 %.sroa.0.0.copyload7, ptr %5, align 2
  %6 = getelementptr inbounds nuw i8, ptr %3, i64 4
  store i16 %.sroa.2.0.copyload, ptr %6, align 2
  %7 = getelementptr inbounds nuw i8, ptr %3, i64 6
  store i16 %.sroa.3.0.copyload, ptr %7, align 2
  %8 = call noundef nonnull align 8 dereferenceable(8) ptr @_ZN32pxrInternal_v0_24__pxrReserved__lsERSoRKNS_7GfVec4hE(ptr noundef nonnull align 8 dereferenceable(8) %0, ptr noundef nonnull align 2 dereferenceable(8) %3)
  ret ptr %8
}